target datalayout = "e-m:e-p270:32:32-p271:32:32-p272:64:64-i64:64-i128:128-f80:128-n8:16:32:64-S128"
target triple = "x86_64-pc-linux-gnu"

%struct.FFOutputFormat = type { %struct.AVOutputFormat, i32, i32, ptr, ptr, ptr, ptr, ptr, ptr, ptr, ptr, ptr, ptr, ptr, ptr }
%struct.AVOutputFormat = type { ptr, ptr, ptr, ptr, i32, i32, i32, i32, ptr, ptr }

@outdev_list_intptr = internal global i64 0, align 8

; Function Attrs: nounwind uwtable
define ptr @av_muxer_iterate(ptr noundef %0) #0 {
  %2 = alloca ptr, align 8
  %3 = alloca ptr, align 8
  %4 = alloca i64, align 8
  %5 = alloca ptr, align 8
  %6 = alloca i64, align 8
  %7 = alloca i64, align 8
  %8 = alloca ptr, align 8
  %9 = alloca i32, align 4
  store ptr %0, ptr %3, align 8, !tbaa !4
  call void @llvm.lifetime.start.p0(i64 8, ptr %4) #2
  %10 = load ptr, ptr %3, align 8, !tbaa !4
  %11 = load ptr, ptr %10, align 8, !tbaa !9
  %12 = ptrtoint ptr %11 to i64
  store i64 %12, ptr %4, align 8, !tbaa !10
  call void @llvm.lifetime.start.p0(i64 8, ptr %5) #2
  store ptr null, ptr %5, align 8, !tbaa !12
  call void @llvm.lifetime.start.p0(i64 8, ptr %6) #2
  %13 = load i64, ptr %4, align 8, !tbaa !10
  %14 = icmp ult i64 %13, 181
  br i1 %14, label %15, label %19

15:                                               ; preds = %1
  %16 = load i64, ptr %4, align 8, !tbaa !10
  %17 = getelementptr inbounds nuw [182 x ptr], ptr @muxer_list, i64 0, i64 %16
  %18 = load ptr, ptr %17, align 8, !tbaa !12
  store ptr %18, ptr %5, align 8, !tbaa !12
  br label %32

19:                                               ; preds = %1
  %20 = load atomic i64, ptr @outdev_list_intptr monotonic, align 8
  store i64 %20, ptr %7, align 8
  %21 = load i64, ptr %7, align 8, !tbaa !10
  store i64 %21, ptr %6, align 8, !tbaa !10
  %22 = icmp ne i64 %21, 0
  br i1 %22, label %23, label %31

23:                                               ; preds = %19
  call void @llvm.lifetime.start.p0(i64 8, ptr %8) #2
  %24 = load i64, ptr %6, align 8, !tbaa !10
  %25 = inttoptr i64 %24 to ptr
  store ptr %25, ptr %8, align 8, !tbaa !14
  %26 = load ptr, ptr %8, align 8, !tbaa !14
  %27 = load i64, ptr %4, align 8, !tbaa !10
  %28 = sub i64 %27, 181
  %29 = getelementptr inbounds nuw ptr, ptr %26, i64 %28
  %30 = load ptr, ptr %29, align 8, !tbaa !12
  store ptr %30, ptr %5, align 8, !tbaa !12
  call void @llvm.lifetime.end.p0(i64 8, ptr %8) #2
  br label %31

31:                                               ; preds = %23, %19
  br label %32

32:                                               ; preds = %31, %15
  %33 = load ptr, ptr %5, align 8, !tbaa !12
  %34 = icmp ne ptr %33, null
  br i1 %34, label %35, label %42

35:                                               ; preds = %32
  %36 = load i64, ptr %4, align 8, !tbaa !10
  %37 = add i64 %36, 1
  %38 = inttoptr i64 %37 to ptr
  %39 = load ptr, ptr %3, align 8, !tbaa !4
  store ptr %38, ptr %39, align 8, !tbaa !9
  %40 = load ptr, ptr %5, align 8, !tbaa !12
  %41 = getelementptr inbounds nuw %struct.FFOutputFormat, ptr %40, i32 0, i32 0
  store ptr %41, ptr %2, align 8
  store i32 1, ptr %9, align 4
  br label %43

42:                                               ; preds = %32
  store ptr null, ptr %2, align 8
  store i32 1, ptr %9, align 4
  br label %43

43:                                               ; preds = %42, %35
  call void @llvm.lifetime.end.p0(i64 8, ptr %6) #2
  call void @llvm.lifetime.end.p0(i64 8, ptr %5) #2
  call void @llvm.lifetime.end.p0(i64 8, ptr %4) #2
  %44 = load ptr, ptr %2, align 8
  ret ptr %44
}